; Function Attrs: alwaysinline norecurse nounwind ssp uwtable
define internal void @"_ZN6open3d4core15ParallelForCPU_IZZZZNS0_6kernel7CopyCPUERKNS0_6TensorERS3_ENK3$_0clEvENKUlvE0_clEvENKUlvE4_clEvEUllE_EEvRKNS0_6DeviceElRKT_.omp_outlined"(ptr noalias noundef readonly captures(none) %0, ptr noalias readnone captures(none) %1, ptr noundef nonnull readonly align 8 captures(none) dereferenceable(8) %2, ptr noundef nonnull readonly align 8 captures(none) dereferenceable(16) %3) #24 personality ptr @__gxx_personality_v0 {
  %5 = alloca i64, align 8
  %6 = alloca i64, align 8
  %7 = alloca i64, align 8
  %8 = alloca i32, align 4
  %9 = load i64, ptr %2, align 8, !tbaa !9
  %10 = icmp sgt i64 %9, 0
  br i1 %10, label %11, label %22

11:                                               ; preds = %4
  %12 = add nsw i64 %9, -1
  call void @llvm.lifetime.start.p0(i64 8, ptr nonnull %5) #25
  store i64 0, ptr %5, align 8, !tbaa !9
  call void @llvm.lifetime.start.p0(i64 8, ptr nonnull %6) #25
  store i64 %12, ptr %6, align 8, !tbaa !9
  call void @llvm.lifetime.start.p0(i64 8, ptr nonnull %7) #25
  store i64 1, ptr %7, align 8, !tbaa !9
  call void @llvm.lifetime.start.p0(i64 4, ptr nonnull %8) #25
  store i32 0, ptr %8, align 4, !tbaa !39
  %13 = load i32, ptr %0, align 4, !tbaa !39
  call void @__kmpc_for_static_init_8(ptr nonnull @1, i32 %13, i32 34, ptr nonnull %8, ptr nonnull %5, ptr nonnull %6, ptr nonnull %7, i64 1, i64 1)
  %14 = load i64, ptr %6, align 8, !tbaa !9
  %15 = call i64 @llvm.smin.i64(i64 %14, i64 %12)
  store i64 %15, ptr %6, align 8, !tbaa !9
  %16 = load i64, ptr %5, align 8, !tbaa !9
  %.not14 = icmp sgt i64 %16, %15
  br i1 %.not14, label %._crit_edge, label %.lr.ph

.lr.ph:                                           ; preds = %11
  %.val = load ptr, ptr %3, align 8, !tbaa !724
  %17 = getelementptr inbounds nuw i8, ptr %3, i64 8
  %.val13 = load ptr, ptr %17, align 8, !tbaa !726
  %.val.val = load ptr, ptr %.val, align 8, !tbaa !86
  %.val13.val.pre = load i64, ptr %.val13, align 8, !tbaa !9
  br label %18

18:                                               ; preds = %.lr.ph, %18
  %.015 = phi i64 [ %16, %.lr.ph ], [ %20, %18 ]
  %19 = getelementptr inbounds i64, ptr %.val.val, i64 %.015
  store i64 %.val13.val.pre, ptr %19, align 8, !tbaa !9
  %20 = add nsw i64 %.015, 1
  %21 = load i64, ptr %6, align 8, !tbaa !9
  %.not.not = icmp slt i64 %.015, %21
  br i1 %.not.not, label %18, label %._crit_edge

._crit_edge:                                      ; preds = %18, %11
  call void @__kmpc_for_static_fini(ptr nonnull @1, i32 %13)
  call void @llvm.lifetime.end.p0(i64 4, ptr nonnull %8) #25
  call void @llvm.lifetime.end.p0(i64 8, ptr nonnull %7) #25
  call void @llvm.lifetime.end.p0(i64 8, ptr nonnull %6) #25
  call void @llvm.lifetime.end.p0(i64 8, ptr nonnull %5) #25
  br label %22

22:                                               ; preds = %._crit_edge, %4
  ret void
}